target datalayout = "e-m:e-p270:32:32-p271:32:32-p272:64:64-i64:64-i128:128-f80:128-n8:16:32:64-S128"
target triple = "x86_64-pc-linux-gnu"

%struct.AVFilterContext = type { ptr, ptr, ptr, ptr, ptr, i32, ptr, ptr, i32, ptr, ptr, i32, i32, ptr, ptr, ptr, ptr, i32, ptr, i32, i32 }
%struct.GraphMonitorContext = type { ptr, i32, i32, float, i32, i32, %struct.AVRational, i32, i32, i64, i64, [4 x i8], [4 x i8], [4 x i8], [4 x i8], [4 x i8], [4 x i8], [4 x i8], ptr, i32, i32 }
%struct.AVRational = type { i32, i32 }

; Function Attrs: cold nounwind optsize uwtable
define internal i32 @init(ptr noundef %0) #0 {
  %2 = alloca i32, align 4
  %3 = alloca ptr, align 8
  %4 = alloca ptr, align 8
  %5 = alloca i32, align 4
  store ptr %0, ptr %3, align 8, !tbaa !4
  call void @llvm.lifetime.start.p0(i64 8, ptr %4) #11
  %6 = load ptr, ptr %3, align 8, !tbaa !4
  %7 = getelementptr inbounds nuw %struct.AVFilterContext, ptr %6, i32 0, i32 9
  %8 = load ptr, ptr %7, align 8, !tbaa !9
  store ptr %8, ptr %4, align 8, !tbaa !22
  %9 = load ptr, ptr %4, align 8, !tbaa !22
  %10 = getelementptr inbounds nuw %struct.GraphMonitorContext, ptr %9, i32 0, i32 19
  %11 = call ptr @av_fast_realloc(ptr noundef null, ptr noundef %10, i64 noundef 65536)
  %12 = load ptr, ptr %4, align 8, !tbaa !22
  %13 = getelementptr inbounds nuw %struct.GraphMonitorContext, ptr %12, i32 0, i32 18
  store ptr %11, ptr %13, align 8, !tbaa !24
  %14 = load ptr, ptr %4, align 8, !tbaa !22
  %15 = getelementptr inbounds nuw %struct.GraphMonitorContext, ptr %14, i32 0, i32 18
  %16 = load ptr, ptr %15, align 8, !tbaa !24
  %17 = icmp ne ptr %16, null
  br i1 %17, label %19, label %18

18:                                               ; preds = %1
  store i32 -12, ptr %2, align 4
  store i32 1, ptr %5, align 4
  br label %20

19:                                               ; preds = %1
  store i32 0, ptr %2, align 4
  store i32 1, ptr %5, align 4
  br label %20

20:                                               ; preds = %19, %18
  call void @llvm.lifetime.end.p0(i64 8, ptr %4) #11
  %21 = load i32, ptr %2, align 4
  ret i32 %21
}