; Function Attrs: cold nounwind optsize uwtable
define internal range(i32 -12, 1) i32 @init(ptr noundef readonly captures(none) %0) #0 {
  %2 = getelementptr inbounds nuw i8, ptr %0, i64 72
  %3 = load ptr, ptr %2, align 8, !tbaa !4
  %4 = getelementptr inbounds nuw i8, ptr %3, i64 104
  %5 = tail call ptr @av_fast_realloc(ptr noundef null, ptr noundef nonnull %4, i64 noundef 65536) #11
  %6 = getelementptr inbounds nuw i8, ptr %3, i64 96
  store ptr %5, ptr %6, align 8, !tbaa !20
  %.not = icmp eq ptr %5, null
  %. = select i1 %.not, i32 -12, i32 0
  ret i32 %.
}